; Function Attrs: nounwind uwtable
define ptr @wolfSSL_SESSION_CIPHER_get_name(ptr noundef captures(address) %0) local_unnamed_addr #0 {
  %2 = tail call ptr @ClientSessionToSession(ptr noundef %0)
  %3 = icmp eq ptr %2, null
  br i1 %3, label %10, label %4

4:                                                ; preds = %1
  %5 = getelementptr inbounds nuw i8, ptr %2, i64 200
  %6 = load i8, ptr %5, align 8, !tbaa !92
  %7 = getelementptr inbounds nuw i8, ptr %2, i64 201
  %8 = load i8, ptr %7, align 1, !tbaa !94
  %9 = tail call ptr @GetCipherNameIana(i8 noundef zeroext %6, i8 noundef zeroext %8) #22
  br label %10

10:                                               ; preds = %1, %4
  %.0 = phi ptr [ %9, %4 ], [ null, %1 ]
  ret ptr %.0
}